; Function Attrs: mustprogress uwtable
define internal void @_ZN7doctest12_GLOBAL__N_111XmlReporter15test_case_startERKNS_12TestCaseDataE(ptr noundef nonnull align 8 dereferenceable(136) %0, ptr noundef nonnull align 8 dereferenceable(80) %1) unnamed_addr #8 align 2 {
  tail call fastcc void @_ZN7doctest12_GLOBAL__N_111XmlReporter20test_case_start_implERKNS_12TestCaseDataE(ptr noundef nonnull align 8 dereferenceable(136) %0, ptr noundef nonnull align 8 dereferenceable(80) %1)
  %3 = getelementptr inbounds nuw i8, ptr %0, i64 8
  %4 = load i8, ptr %3, align 8, !tbaa !459, !range !22, !noundef !23
  %5 = trunc nuw i8 %4 to i1
  br i1 %5, label %6, label %_ZN7doctest12_GLOBAL__N_19XmlWriter15ensureTagClosedEv.exit

6:                                                ; preds = %2
  %7 = getelementptr inbounds nuw i8, ptr %0, i64 72
  %8 = load ptr, ptr %7, align 8, !tbaa !499
  %9 = tail call noundef nonnull align 8 dereferenceable(8) ptr @_ZSt16__ostream_insertIcSt11char_traitsIcEERSt13basic_ostreamIT_T0_ES6_PKS3_l(ptr noundef nonnull align 8 dereferenceable(8) %8, ptr noundef nonnull @.str.60, i64 noundef 1)
  %10 = load ptr, ptr %8, align 8, !tbaa !31
  %11 = getelementptr i8, ptr %10, i64 -24
  %12 = load i64, ptr %11, align 8
  %13 = getelementptr inbounds i8, ptr %8, i64 %12
  %14 = getelementptr inbounds nuw i8, ptr %13, i64 240
  %15 = load ptr, ptr %14, align 8, !tbaa !240
  %.not.i.i.i.i = icmp eq ptr %15, null
  br i1 %.not.i.i.i.i, label %16, label %_ZSt13__check_facetISt5ctypeIcEERKT_PS3_.exit.i.i.i

16:                                               ; preds = %6
  tail call void @_ZSt16__throw_bad_castv() #50
  unreachable

_ZSt13__check_facetISt5ctypeIcEERKT_PS3_.exit.i.i.i: ; preds = %6
  %17 = getelementptr inbounds nuw i8, ptr %15, i64 56
  %18 = load i8, ptr %17, align 8, !tbaa !246
  %.not.i1.i.i.i = icmp eq i8 %18, 0
  br i1 %.not.i1.i.i.i, label %22, label %19

19:                                               ; preds = %_ZSt13__check_facetISt5ctypeIcEERKT_PS3_.exit.i.i.i
  %20 = getelementptr inbounds nuw i8, ptr %15, i64 67
  %21 = load i8, ptr %20, align 1, !tbaa !38
  br label %_ZSt4endlIcSt11char_traitsIcEERSt13basic_ostreamIT_T0_ES6_.exit.i

22:                                               ; preds = %_ZSt13__check_facetISt5ctypeIcEERKT_PS3_.exit.i.i.i
  tail call void @_ZNKSt5ctypeIcE13_M_widen_initEv(ptr noundef nonnull align 8 dereferenceable(570) %15)
  %23 = load ptr, ptr %15, align 8, !tbaa !31
  %24 = getelementptr inbounds nuw i8, ptr %23, i64 48
  %25 = load ptr, ptr %24, align 8
  %26 = tail call noundef signext i8 %25(ptr noundef nonnull align 8 dereferenceable(570) %15, i8 noundef signext 10)
  br label %_ZSt4endlIcSt11char_traitsIcEERSt13basic_ostreamIT_T0_ES6_.exit.i

_ZSt4endlIcSt11char_traitsIcEERSt13basic_ostreamIT_T0_ES6_.exit.i: ; preds = %22, %19
  %.0.i.i.i.i = phi i8 [ %21, %19 ], [ %26, %22 ]
  %27 = tail call noundef nonnull align 8 dereferenceable(8) ptr @_ZNSo3putEc(ptr noundef nonnull align 8 dereferenceable(8) %8, i8 noundef signext %.0.i.i.i.i)
  %28 = tail call noundef nonnull align 8 dereferenceable(8) ptr @_ZNSo5flushEv(ptr noundef nonnull align 8 dereferenceable(8) %27)
  store i8 0, ptr %3, align 8, !tbaa !459
  br label %_ZN7doctest12_GLOBAL__N_19XmlWriter15ensureTagClosedEv.exit

_ZN7doctest12_GLOBAL__N_19XmlWriter15ensureTagClosedEv.exit: ; preds = %2, %_ZSt4endlIcSt11char_traitsIcEERSt13basic_ostreamIT_T0_ES6_.exit.i
  ret void
}